; Function Attrs: mustprogress uwtable
define internal noundef i32 @_ZL9verify_cbiP17x509_store_ctx_st(i32 noundef %0, ptr noundef %1) #3 personality ptr @__gxx_personality_v0 {
  %3 = alloca i32, align 4
  %4 = alloca %"class.absl::lts_20240722::log_internal::LogMessage", align 8
  %5 = alloca %"class.absl::lts_20240722::log_internal::LogMessage", align 8
  %6 = tail call i32 @X509_STORE_CTX_get_error(ptr noundef %1)
  switch i32 %6, label %13 [
    i32 3, label %7
    i32 0, label %.critedge17
  ]

7:                                                ; preds = %2
  %8 = load atomic i8, ptr getelementptr inbounds nuw (i8, ptr @_ZN9grpc_core9tsi_traceE, i64 16) monotonic, align 8
  %9 = trunc i8 %8 to i1
  br i1 %9, label %10, label %.critedge17, !prof !28

10:                                               ; preds = %7
  call void @llvm.lifetime.start.p0(i64 16, ptr nonnull %4) #32
  call void @_ZN4absl12lts_2024072212log_internal10LogMessageC1EPKciNS2_7InfoTagE(ptr noundef nonnull align 8 dereferenceable(16) %4, ptr noundef nonnull @.str.1, i32 noundef 901) #33
  invoke void @_ZN4absl12lts_2024072212log_internal10LogMessage19CopyToEncodedBufferILNS2_10StringTypeE0EEEvSt17basic_string_viewIcSt11char_traitsIcEE(ptr noundef nonnull align 8 dereferenceable(16) %4, i64 74, ptr nonnull @.str.98)
          to label %.critedge unwind label %11

.critedge:                                        ; preds = %10
  call void @_ZN4absl12lts_2024072212log_internal10LogMessageD1Ev(ptr noundef nonnull align 8 dereferenceable(16) %4) #34
  call void @llvm.lifetime.end.p0(i64 16, ptr nonnull %4) #32
  br label %.critedge17

11:                                               ; preds = %10
  %12 = landingpad { ptr, i32 }
          cleanup
  call void @_ZN4absl12lts_2024072212log_internal10LogMessageD1Ev(ptr noundef nonnull align 8 dereferenceable(16) %4) #34
  call void @llvm.lifetime.end.p0(i64 16, ptr nonnull %4) #32
  br label %18

13:                                               ; preds = %2
  call void @llvm.lifetime.start.p0(i64 16, ptr nonnull %5) #32
  call void @_ZN4absl12lts_2024072212log_internal10LogMessageC1EPKciNS2_8ErrorTagE(ptr noundef nonnull align 8 dereferenceable(16) %5, ptr noundef nonnull @.str.1, i32 noundef 907) #33
  invoke void @_ZN4absl12lts_2024072212log_internal10LogMessage19CopyToEncodedBufferILNS2_10StringTypeE0EEEvSt17basic_string_viewIcSt11char_traitsIcEE(ptr noundef nonnull align 8 dereferenceable(16) %5, i64 36, ptr nonnull @.str.99)
          to label %_ZN4absl12lts_2024072212log_internal10LogMessagelsILi37EEERS2_RAT__Kc.exit unwind label %16

_ZN4absl12lts_2024072212log_internal10LogMessagelsILi37EEERS2_RAT__Kc.exit: ; preds = %13
  call void @llvm.lifetime.start.p0(i64 4, ptr nonnull %3)
  store i32 %6, ptr %3, align 4, !tbaa !21
  %14 = invoke noundef nonnull align 8 dereferenceable(16) ptr @_ZN4absl12lts_2024072212log_internal10LogMessagelsIiTnNSt9enable_ifIXntsr4absl16HasAbslStringifyIT_EE5valueEiE4typeELi0EEERS2_RKS5_(ptr noundef nonnull align 8 dereferenceable(16) %5, ptr noundef nonnull align 4 dereferenceable(4) %3)
          to label %15 unwind label %16

15:                                               ; preds = %_ZN4absl12lts_2024072212log_internal10LogMessagelsILi37EEERS2_RAT__Kc.exit
  call void @llvm.lifetime.end.p0(i64 4, ptr nonnull %3)
  call void @_ZN4absl12lts_2024072212log_internal10LogMessageD1Ev(ptr noundef nonnull align 8 dereferenceable(16) %5) #34
  call void @llvm.lifetime.end.p0(i64 16, ptr nonnull %5) #32
  br label %.critedge17

16:                                               ; preds = %_ZN4absl12lts_2024072212log_internal10LogMessagelsILi37EEERS2_RAT__Kc.exit, %13
  %17 = landingpad { ptr, i32 }
          cleanup
  call void @_ZN4absl12lts_2024072212log_internal10LogMessageD1Ev(ptr noundef nonnull align 8 dereferenceable(16) %5) #34
  call void @llvm.lifetime.end.p0(i64 16, ptr nonnull %5) #32
  br label %18

.critedge17:                                      ; preds = %.critedge, %7, %15, %2
  %.014 = phi i32 [ %0, %2 ], [ %0, %15 ], [ 1, %7 ], [ 1, %.critedge ]
  ret i32 %.014

18:                                               ; preds = %16, %11
  %.pn = phi { ptr, i32 } [ %12, %11 ], [ %17, %16 ]
  resume { ptr, i32 } %.pn
}